target datalayout = "e-m:e-p270:32:32-p271:32:32-p272:64:64-i64:64-i128:128-f80:128-n8:16:32:64-S128"
target triple = "x86_64-pc-linux-gnu"

%struct.WC_RNG = type { %struct.OS_Seed, ptr, ptr, i8 }
%struct.OS_Seed = type { i32 }

@seedA_data = constant [48 x i8] c"c63w\E4\1E\86F\8D\EB\0A\B4\A8\EDh?j\13NG\E0\14\C7\00EN\81\E9SX\A5i\80\8A\A3\8F*r\A6#Y\91Z\9F\8A\04\CAh", align 16
@reseedSeedA_data = constant [32 x i8] c"\E6+\8A\8E\E8\F1A\B6\98\05f\E3\BF\E3\C0I\03\DA\D4\AC,\DF\9F\22\80\01\0Ag9\BC\83\D3", align 16
@seedB_data = constant [48 x i8] c"\A6Z\D0\F3E\DBN\0E\FF\E8u\C3\A2\E7\1FB\C7\12\9Db\0F\F5\C1\19\A9\EFU\F0Q\85\E0\FB\85\81\F91u\17'n\06\E9`}\DB\CB\CC.", align 16

; Function Attrs: inlinehint nounwind uwtable
define internal i32 @ConstantCompare(ptr noundef %0, ptr noundef %1, i32 noundef %2) #2 {
  %4 = alloca ptr, align 8
  %5 = alloca ptr, align 8
  %6 = alloca i32, align 4
  %7 = alloca i32, align 4
  %8 = alloca i32, align 4
  store ptr %0, ptr %4, align 8, !tbaa !8
  store ptr %1, ptr %5, align 8, !tbaa !8
  store i32 %2, ptr %6, align 4, !tbaa !10
  call void @llvm.lifetime.start.p0(i64 4, ptr %7) #6
  call void @llvm.lifetime.start.p0(i64 4, ptr %8) #6
  store i32 0, ptr %8, align 4, !tbaa !10
  store i32 0, ptr %7, align 4, !tbaa !10
  br label %9

9:                                                ; preds = %29, %3
  %10 = load i32, ptr %7, align 4, !tbaa !10
  %11 = load i32, ptr %6, align 4, !tbaa !10
  %12 = icmp slt i32 %10, %11
  br i1 %12, label %13, label %32

13:                                               ; preds = %9
  %14 = load ptr, ptr %4, align 8, !tbaa !8
  %15 = load i32, ptr %7, align 4, !tbaa !10
  %16 = sext i32 %15 to i64
  %17 = getelementptr inbounds i8, ptr %14, i64 %16
  %18 = load i8, ptr %17, align 1, !tbaa !22
  %19 = zext i8 %18 to i32
  %20 = load ptr, ptr %5, align 8, !tbaa !8
  %21 = load i32, ptr %7, align 4, !tbaa !10
  %22 = sext i32 %21 to i64
  %23 = getelementptr inbounds i8, ptr %20, i64 %22
  %24 = load i8, ptr %23, align 1, !tbaa !22
  %25 = zext i8 %24 to i32
  %26 = xor i32 %19, %25
  %27 = load i32, ptr %8, align 4, !tbaa !10
  %28 = or i32 %27, %26
  store i32 %28, ptr %8, align 4, !tbaa !10
  br label %29

29:                                               ; preds = %13
  %30 = load i32, ptr %7, align 4, !tbaa !10
  %31 = add nsw i32 %30, 1
  store i32 %31, ptr %7, align 4, !tbaa !10
  br label %9, !llvm.loop !23

32:                                               ; preds = %9
  %33 = load i32, ptr %8, align 4, !tbaa !10
  call void @llvm.lifetime.end.p0(i64 4, ptr %8) #6
  call void @llvm.lifetime.end.p0(i64 4, ptr %7) #6
  ret i32 %33
}

; Function Attrs: nounwind uwtable
define internal i32 @wc_RNG_HealthTestLocal(i32 noundef %0, ptr noundef %1, i32 noundef %2) #0 {
  %4 = alloca i32, align 4
  %5 = alloca ptr, align 8
  %6 = alloca i32, align 4
  %7 = alloca i32, align 4
  %8 = alloca [128 x i8], align 16
  %9 = alloca ptr, align 8
  %10 = alloca ptr, align 8
  %11 = alloca ptr, align 8
  %12 = alloca ptr, align 8
  %13 = alloca ptr, align 8
  store i32 %0, ptr %4, align 4, !tbaa !10
  store ptr %1, ptr %5, align 8, !tbaa !24
  store i32 %2, ptr %6, align 4, !tbaa !10
  call void @llvm.lifetime.start.p0(i64 4, ptr %7) #6
  store i32 0, ptr %7, align 4, !tbaa !10
  call void @llvm.lifetime.start.p0(i64 128, ptr %8) #6
  %14 = load i32, ptr %4, align 4, !tbaa !10
  %15 = icmp ne i32 %14, 0
  br i1 %15, label %16, label %33

16:                                               ; preds = %3
  call void @llvm.lifetime.start.p0(i64 8, ptr %9) #6
  store ptr @seedA_data, ptr %9, align 8, !tbaa !8
  call void @llvm.lifetime.start.p0(i64 8, ptr %10) #6
  store ptr @reseedSeedA_data, ptr %10, align 8, !tbaa !8
  call void @llvm.lifetime.start.p0(i64 8, ptr %11) #6
  store ptr @outputA_data, ptr %11, align 8, !tbaa !8
  %17 = load ptr, ptr %9, align 8, !tbaa !8
  %18 = load ptr, ptr %10, align 8, !tbaa !8
  %19 = getelementptr inbounds [128 x i8], ptr %8, i64 0, i64 0
  %20 = load ptr, ptr %5, align 8, !tbaa !24
  %21 = load i32, ptr %6, align 4, !tbaa !10
  %22 = call i32 @wc_RNG_HealthTest_ex(i32 noundef 1, ptr noundef null, i32 noundef 0, ptr noundef %17, i32 noundef 48, ptr noundef %18, i32 noundef 32, ptr noundef %19, i32 noundef 128, ptr noundef %20, i32 noundef %21)
  store i32 %22, ptr %7, align 4, !tbaa !10
  %23 = load i32, ptr %7, align 4, !tbaa !10
  %24 = icmp eq i32 %23, 0
  br i1 %24, label %25, label %32

25:                                               ; preds = %16
  %26 = getelementptr inbounds [128 x i8], ptr %8, i64 0, i64 0
  %27 = load ptr, ptr %11, align 8, !tbaa !8
  %28 = call i32 @ConstantCompare(ptr noundef %26, ptr noundef %27, i32 noundef 128)
  %29 = icmp ne i32 %28, 0
  br i1 %29, label %30, label %31

30:                                               ; preds = %25
  store i32 -1, ptr %7, align 4, !tbaa !10
  br label %31

31:                                               ; preds = %30, %25
  br label %32

32:                                               ; preds = %31, %16
  call void @llvm.lifetime.end.p0(i64 8, ptr %11) #6
  call void @llvm.lifetime.end.p0(i64 8, ptr %10) #6
  call void @llvm.lifetime.end.p0(i64 8, ptr %9) #6
  br label %72

33:                                               ; preds = %3
  call void @llvm.lifetime.start.p0(i64 8, ptr %12) #6
  store ptr @seedB_data, ptr %12, align 8, !tbaa !8
  call void @llvm.lifetime.start.p0(i64 8, ptr %13) #6
  store ptr @outputB_data, ptr %13, align 8, !tbaa !8
  %34 = load ptr, ptr %12, align 8, !tbaa !8
  %35 = getelementptr inbounds [128 x i8], ptr %8, i64 0, i64 0
  %36 = load ptr, ptr %5, align 8, !tbaa !24
  %37 = load i32, ptr %6, align 4, !tbaa !10
  %38 = call i32 @wc_RNG_HealthTest_ex(i32 noundef 0, ptr noundef null, i32 noundef 0, ptr noundef %34, i32 noundef 48, ptr noundef null, i32 noundef 0, ptr noundef %35, i32 noundef 128, ptr noundef %36, i32 noundef %37)
  store i32 %38, ptr %7, align 4, !tbaa !10
  %39 = load i32, ptr %7, align 4, !tbaa !10
  %40 = icmp ne i32 %39, 0
  br i1 %40, label %41, label %42

41:                                               ; preds = %33
  br label %50

42:                                               ; preds = %33
  %43 = getelementptr inbounds [128 x i8], ptr %8, i64 0, i64 0
  %44 = load ptr, ptr %13, align 8, !tbaa !8
  %45 = call i32 @ConstantCompare(ptr noundef %43, ptr noundef %44, i32 noundef 128)
  store i32 %45, ptr %7, align 4, !tbaa !10
  %46 = load i32, ptr %7, align 4, !tbaa !10
  %47 = icmp ne i32 %46, 0
  br i1 %47, label %48, label %49

48:                                               ; preds = %42
  store i32 -1, ptr %7, align 4, !tbaa !10
  br label %49

49:                                               ; preds = %48, %42
  br label %50

50:                                               ; preds = %49, %41
  %51 = load i32, ptr %7, align 4, !tbaa !10
  %52 = icmp eq i32 %51, 0
  br i1 %52, label %53, label %71

53:                                               ; preds = %50
  %54 = load ptr, ptr %12, align 8, !tbaa !8
  %55 = getelementptr inbounds i8, ptr %54, i64 32
  %56 = load ptr, ptr %12, align 8, !tbaa !8
  %57 = getelementptr inbounds [128 x i8], ptr %8, i64 0, i64 0
  %58 = load ptr, ptr %5, align 8, !tbaa !24
  %59 = load i32, ptr %6, align 4, !tbaa !10
  %60 = call i32 @wc_RNG_HealthTest_ex(i32 noundef 0, ptr noundef %55, i32 noundef 16, ptr noundef %56, i32 noundef 32, ptr noundef null, i32 noundef 0, ptr noundef %57, i32 noundef 128, ptr noundef %58, i32 noundef %59)
  store i32 %60, ptr %7, align 4, !tbaa !10
  %61 = load i32, ptr %7, align 4, !tbaa !10
  %62 = icmp eq i32 %61, 0
  br i1 %62, label %63, label %70

63:                                               ; preds = %53
  %64 = getelementptr inbounds [128 x i8], ptr %8, i64 0, i64 0
  %65 = load ptr, ptr %13, align 8, !tbaa !8
  %66 = call i32 @ConstantCompare(ptr noundef %64, ptr noundef %65, i32 noundef 128)
  %67 = icmp ne i32 %66, 0
  br i1 %67, label %68, label %69

68:                                               ; preds = %63
  store i32 -1, ptr %7, align 4, !tbaa !10
  br label %69

69:                                               ; preds = %68, %63
  br label %70

70:                                               ; preds = %69, %53
  br label %71

71:                                               ; preds = %70, %50
  call void @llvm.lifetime.end.p0(i64 8, ptr %13) #6
  call void @llvm.lifetime.end.p0(i64 8, ptr %12) #6
  br label %72

72:                                               ; preds = %71, %32
  %73 = load i32, ptr %7, align 4, !tbaa !10
  call void @llvm.lifetime.end.p0(i64 128, ptr %8) #6
  call void @llvm.lifetime.end.p0(i64 4, ptr %7) #6
  ret i32 %73
}

; Function Attrs: nounwind uwtable
define i32 @wc_RNG_GenerateBlock(ptr noundef %0, ptr noundef %1, i32 noundef %2) #0 {
  %4 = alloca i32, align 4
  %5 = alloca ptr, align 8
  %6 = alloca ptr, align 8
  %7 = alloca i32, align 4
  %8 = alloca i32, align 4
  %9 = alloca i32, align 4
  %10 = alloca i32, align 4
  %11 = alloca [36 x i8], align 16
  store ptr %0, ptr %5, align 8, !tbaa !3
  store ptr %1, ptr %6, align 8, !tbaa !8
  store i32 %2, ptr %7, align 4, !tbaa !10
  call void @llvm.lifetime.start.p0(i64 4, ptr %8) #6
  %12 = load ptr, ptr %5, align 8, !tbaa !3
  %13 = icmp eq ptr %12, null
  br i1 %13, label %17, label %14

14:                                               ; preds = %3
  %15 = load ptr, ptr %6, align 8, !tbaa !8
  %16 = icmp eq ptr %15, null
  br i1 %16, label %17, label %18

17:                                               ; preds = %14, %3
  store i32 -173, ptr %4, align 4
  store i32 1, ptr %9, align 4
  br label %108

18:                                               ; preds = %14
  %19 = load i32, ptr %7, align 4, !tbaa !10
  %20 = icmp eq i32 %19, 0
  br i1 %20, label %21, label %22

21:                                               ; preds = %18
  store i32 0, ptr %4, align 4
  store i32 1, ptr %9, align 4
  br label %108

22:                                               ; preds = %18
  %23 = load i32, ptr %7, align 4, !tbaa !10
  %24 = zext i32 %23 to i64
  %25 = icmp sgt i64 %24, 65536
  br i1 %25, label %26, label %27

26:                                               ; preds = %22
  store i32 -173, ptr %4, align 4
  store i32 1, ptr %9, align 4
  br label %108

27:                                               ; preds = %22
  %28 = load ptr, ptr %5, align 8, !tbaa !3
  %29 = getelementptr inbounds nuw %struct.WC_RNG, ptr %28, i32 0, i32 3
  %30 = load i8, ptr %29, align 8, !tbaa !26
  %31 = zext i8 %30 to i32
  %32 = icmp ne i32 %31, 1
  br i1 %32, label %33, label %34

33:                                               ; preds = %27
  store i32 -199, ptr %4, align 4
  store i32 1, ptr %9, align 4
  br label %108

34:                                               ; preds = %27
  %35 = load ptr, ptr %5, align 8, !tbaa !3
  %36 = getelementptr inbounds nuw %struct.WC_RNG, ptr %35, i32 0, i32 2
  %37 = load ptr, ptr %36, align 8, !tbaa !12
  %38 = load ptr, ptr %6, align 8, !tbaa !8
  %39 = load i32, ptr %7, align 4, !tbaa !10
  %40 = call i32 @Hash_DRBG_Generate(ptr noundef %37, ptr noundef %38, i32 noundef %39)
  store i32 %40, ptr %8, align 4, !tbaa !10
  %41 = load i32, ptr %8, align 4, !tbaa !10
  %42 = icmp eq i32 %41, 2
  br i1 %42, label %43, label %92

43:                                               ; preds = %34
  call void @llvm.lifetime.start.p0(i64 4, ptr %10) #6
  store i32 -2, ptr %10, align 4, !tbaa !10
  %44 = load ptr, ptr %5, align 8, !tbaa !3
  %45 = getelementptr inbounds nuw %struct.WC_RNG, ptr %44, i32 0, i32 1
  %46 = load ptr, ptr %45, align 8, !tbaa !25
  %47 = load i32, ptr %10, align 4, !tbaa !10
  %48 = call i32 @wc_RNG_HealthTestLocal(i32 noundef 1, ptr noundef %46, i32 noundef %47)
  %49 = icmp eq i32 %48, 0
  br i1 %49, label %50, label %90

50:                                               ; preds = %43
  call void @llvm.lifetime.start.p0(i64 36, ptr %11) #6
  store i32 0, ptr %8, align 4, !tbaa !10
  %51 = load i32, ptr %8, align 4, !tbaa !10
  %52 = icmp eq i32 %51, 0
  br i1 %52, label %53, label %62

53:                                               ; preds = %50
  %54 = load ptr, ptr %5, align 8, !tbaa !3
  %55 = getelementptr inbounds nuw %struct.WC_RNG, ptr %54, i32 0, i32 0
  %56 = getelementptr inbounds [36 x i8], ptr %11, i64 0, i64 0
  %57 = call i32 @wc_GenerateSeed(ptr noundef %55, ptr noundef %56, i32 noundef 36)
  store i32 %57, ptr %8, align 4, !tbaa !10
  %58 = load i32, ptr %8, align 4, !tbaa !10
  %59 = icmp ne i32 %58, 0
  br i1 %59, label %60, label %61

60:                                               ; preds = %53
  store i32 1, ptr %8, align 4, !tbaa !10
  br label %61

61:                                               ; preds = %60, %53
  br label %62

62:                                               ; preds = %61, %50
  %63 = load i32, ptr %8, align 4, !tbaa !10
  %64 = icmp eq i32 %63, 0
  br i1 %64, label %65, label %68

65:                                               ; preds = %62
  %66 = getelementptr inbounds [36 x i8], ptr %11, i64 0, i64 0
  %67 = call i32 @wc_RNG_TestSeed(ptr noundef %66, i32 noundef 36)
  store i32 %67, ptr %8, align 4, !tbaa !10
  br label %68

68:                                               ; preds = %65, %62
  %69 = load i32, ptr %8, align 4, !tbaa !10
  %70 = icmp eq i32 %69, 0
  br i1 %70, label %71, label %78

71:                                               ; preds = %68
  %72 = load ptr, ptr %5, align 8, !tbaa !3
  %73 = getelementptr inbounds nuw %struct.WC_RNG, ptr %72, i32 0, i32 2
  %74 = load ptr, ptr %73, align 8, !tbaa !12
  %75 = getelementptr inbounds [36 x i8], ptr %11, i64 0, i64 0
  %76 = getelementptr inbounds i8, ptr %75, i64 4
  %77 = call i32 @Hash_DRBG_Reseed(ptr noundef %74, ptr noundef %76, i32 noundef 32)
  store i32 %77, ptr %8, align 4, !tbaa !10
  br label %78

78:                                               ; preds = %71, %68
  %79 = load i32, ptr %8, align 4, !tbaa !10
  %80 = icmp eq i32 %79, 0
  br i1 %80, label %81, label %88

81:                                               ; preds = %78
  %82 = load ptr, ptr %5, align 8, !tbaa !3
  %83 = getelementptr inbounds nuw %struct.WC_RNG, ptr %82, i32 0, i32 2
  %84 = load ptr, ptr %83, align 8, !tbaa !12
  %85 = load ptr, ptr %6, align 8, !tbaa !8
  %86 = load i32, ptr %7, align 4, !tbaa !10
  %87 = call i32 @Hash_DRBG_Generate(ptr noundef %84, ptr noundef %85, i32 noundef %86)
  store i32 %87, ptr %8, align 4, !tbaa !10
  br label %88

88:                                               ; preds = %81, %78
  %89 = getelementptr inbounds [36 x i8], ptr %11, i64 0, i64 0
  call void @ForceZero(ptr noundef %89, i32 noundef 36)
  call void @llvm.lifetime.end.p0(i64 36, ptr %11) #6
  br label %91

90:                                               ; preds = %43
  store i32 3, ptr %8, align 4, !tbaa !10
  br label %91

91:                                               ; preds = %90, %88
  call void @llvm.lifetime.end.p0(i64 4, ptr %10) #6
  br label %92

92:                                               ; preds = %91, %34
  %93 = load i32, ptr %8, align 4, !tbaa !10
  %94 = icmp eq i32 %93, 0
  br i1 %94, label %95, label %96

95:                                               ; preds = %92
  store i32 0, ptr %8, align 4, !tbaa !10
  br label %106

96:                                               ; preds = %92
  %97 = load i32, ptr %8, align 4, !tbaa !10
  %98 = icmp eq i32 %97, 3
  br i1 %98, label %99, label %102

99:                                               ; preds = %96
  store i32 -209, ptr %8, align 4, !tbaa !10
  %100 = load ptr, ptr %5, align 8, !tbaa !3
  %101 = getelementptr inbounds nuw %struct.WC_RNG, ptr %100, i32 0, i32 3
  store i8 3, ptr %101, align 8, !tbaa !26
  br label %105

102:                                              ; preds = %96
  store i32 -199, ptr %8, align 4, !tbaa !10
  %103 = load ptr, ptr %5, align 8, !tbaa !3
  %104 = getelementptr inbounds nuw %struct.WC_RNG, ptr %103, i32 0, i32 3
  store i8 2, ptr %104, align 8, !tbaa !26
  br label %105

105:                                              ; preds = %102, %99
  br label %106

106:                                              ; preds = %105, %95
  %107 = load i32, ptr %8, align 4, !tbaa !10
  store i32 %107, ptr %4, align 4
  store i32 1, ptr %9, align 4
  br label %108

108:                                              ; preds = %106, %33, %26, %21, %17
  call void @llvm.lifetime.end.p0(i64 4, ptr %8) #6
  %109 = load i32, ptr %4, align 4
  ret i32 %109
}