; Function Attrs: nounwind uwtable
define range(i32 -209, 1) i32 @wc_RNG_GenerateBlock(ptr noundef captures(address_is_null) %0, ptr noundef writeonly captures(address_is_null) %1, i32 noundef %2) local_unnamed_addr #0 {
  %4 = alloca [128 x i8], align 16
  %5 = alloca [36 x i8], align 16
  %6 = icmp eq ptr %0, null
  %7 = icmp eq ptr %1, null
  %or.cond = or i1 %6, %7
  br i1 %or.cond, label %47, label %8

8:                                                ; preds = %3
  %9 = icmp eq i32 %2, 0
  br i1 %9, label %47, label %10

10:                                               ; preds = %8
  %11 = icmp ugt i32 %2, 65536
  br i1 %11, label %47, label %12

12:                                               ; preds = %10
  %13 = getelementptr inbounds nuw i8, ptr %0, i64 24
  %14 = load i8, ptr %13, align 8, !tbaa !22
  %.not = icmp eq i8 %14, 1
  br i1 %.not, label %15, label %47

15:                                               ; preds = %12
  %16 = getelementptr inbounds nuw i8, ptr %0, i64 16
  %17 = load ptr, ptr %16, align 8, !tbaa !3
  %18 = tail call fastcc i32 @Hash_DRBG_Generate(ptr noundef %17, ptr noundef %1, i32 noundef %2)
  %19 = icmp eq i32 %18, 2
  br i1 %19, label %20, label %45

20:                                               ; preds = %15
  %21 = getelementptr inbounds nuw i8, ptr %0, i64 8
  %22 = load ptr, ptr %21, align 8, !tbaa !21
  call void @llvm.lifetime.start.p0(i64 128, ptr nonnull %4) #9
  %23 = call i32 @wc_RNG_HealthTest_ex(i32 noundef 1, ptr noundef null, i32 noundef 0, ptr noundef nonnull @seedA_data, i32 noundef 48, ptr noundef nonnull @reseedSeedA_data, i32 noundef 32, ptr noundef nonnull %4, i32 noundef 128, ptr noundef %22, i32 poison)
  %24 = icmp eq i32 %23, 0
  br i1 %24, label %.lr.ph.i.i, label %wc_RNG_HealthTestLocal.exit.thread

wc_RNG_HealthTestLocal.exit.thread:               ; preds = %20
  call void @llvm.lifetime.end.p0(i64 128, ptr nonnull %4) #9
  br label %.sink.split

.lr.ph.i.i:                                       ; preds = %20, %.lr.ph.i.i
  %indvars.iv.i.i = phi i64 [ %indvars.iv.next.i.i, %.lr.ph.i.i ], [ 0, %20 ]
  %.010.i.i = phi i32 [ %31, %.lr.ph.i.i ], [ 0, %20 ]
  %25 = getelementptr inbounds nuw i8, ptr %4, i64 %indvars.iv.i.i
  %26 = load i8, ptr %25, align 1, !tbaa !15
  %27 = getelementptr inbounds nuw i8, ptr @outputA_data, i64 %indvars.iv.i.i
  %28 = load i8, ptr %27, align 1, !tbaa !15
  %29 = xor i8 %28, %26
  %30 = zext i8 %29 to i32
  %31 = or i32 %.010.i.i, %30
  %indvars.iv.next.i.i = add nuw nsw i64 %indvars.iv.i.i, 1
  %exitcond.not.i.i = icmp eq i64 %indvars.iv.next.i.i, 128
  br i1 %exitcond.not.i.i, label %wc_RNG_HealthTestLocal.exit, label %.lr.ph.i.i, !llvm.loop !19

wc_RNG_HealthTestLocal.exit:                      ; preds = %.lr.ph.i.i
  %.not28.i.not = icmp eq i32 %31, 0
  call void @llvm.lifetime.end.p0(i64 128, ptr nonnull %4) #9
  br i1 %.not28.i.not, label %32, label %.sink.split

32:                                               ; preds = %wc_RNG_HealthTestLocal.exit
  call void @llvm.lifetime.start.p0(i64 36, ptr nonnull %5) #9
  %33 = call i32 @wc_GenerateSeed(ptr noundef %0, ptr noundef nonnull %5, i32 noundef 36)
  %.not32.not = icmp eq i32 %33, 0
  br i1 %.not32.not, label %34, label %.thread35

34:                                               ; preds = %32
  %35 = call i32 @wc_RNG_TestSeed(ptr noundef nonnull %5, i32 noundef 36)
  %36 = icmp eq i32 %35, 0
  br i1 %36, label %37, label %.thread35

37:                                               ; preds = %34
  %38 = load ptr, ptr %16, align 8, !tbaa !3
  %39 = getelementptr inbounds nuw i8, ptr %5, i64 4
  %40 = call fastcc i32 @Hash_DRBG_Reseed(ptr noundef %38, ptr noundef nonnull %39, i32 noundef 32)
  %41 = icmp eq i32 %40, 0
  br i1 %41, label %42, label %.thread35

42:                                               ; preds = %37
  %43 = load ptr, ptr %16, align 8, !tbaa !3
  %44 = call fastcc i32 @Hash_DRBG_Generate(ptr noundef %43, ptr noundef %1, i32 noundef %2)
  br label %.thread35

.thread35:                                        ; preds = %32, %34, %42, %37
  %.4 = phi i32 [ %44, %42 ], [ 1, %37 ], [ %35, %34 ], [ 1, %32 ]
  call fastcc void @ForceZero(ptr noundef %5, i32 noundef 36)
  call void @llvm.lifetime.end.p0(i64 36, ptr nonnull %5) #9
  br label %45

45:                                               ; preds = %.thread35, %15
  %.027 = phi i32 [ %18, %15 ], [ %.4, %.thread35 ]
  switch i32 %.027, label %46 [
    i32 0, label %47
    i32 3, label %.sink.split
  ]

46:                                               ; preds = %45
  br label %.sink.split

.sink.split:                                      ; preds = %45, %wc_RNG_HealthTestLocal.exit, %wc_RNG_HealthTestLocal.exit.thread, %46
  %.sink = phi i8 [ 2, %46 ], [ 3, %wc_RNG_HealthTestLocal.exit.thread ], [ 3, %wc_RNG_HealthTestLocal.exit ], [ 3, %45 ]
  %.0.ph = phi i32 [ -199, %46 ], [ -209, %wc_RNG_HealthTestLocal.exit.thread ], [ -209, %wc_RNG_HealthTestLocal.exit ], [ -209, %45 ]
  store i8 %.sink, ptr %13, align 8, !tbaa !22
  br label %47

47:                                               ; preds = %.sink.split, %45, %12, %10, %8, %3
  %.0 = phi i32 [ -173, %3 ], [ 0, %8 ], [ -173, %10 ], [ -199, %12 ], [ %.027, %45 ], [ %.0.ph, %.sink.split ]
  ret i32 %.0
}